; Function Attrs: mustprogress nounwind uwtable
define internal fastcc void @_ZN12_GLOBAL__N_114ODRTypeVisitor16VisitTypedefTypeEPKN5clang11TypedefTypeE(ptr noundef nonnull readonly align 8 captures(none) dereferenceable(16) %0, ptr noundef readonly captures(none) %1) unnamed_addr #0 align 2 {
  %3 = getelementptr inbounds nuw i8, ptr %1, i64 32
  %4 = load ptr, ptr %3, align 16
  %5 = getelementptr inbounds nuw i8, ptr %0, i64 8
  %6 = load ptr, ptr %5, align 8
  %7 = icmp ne ptr %4, null
  %8 = getelementptr inbounds nuw i8, ptr %6, i64 24
  %9 = tail call noundef i64 @_ZNK4llvm15SmallVectorBaseImE4sizeEv(ptr noundef nonnull align 8 dereferenceable(24) %8) #14
  %10 = add i64 %9, 1
  %11 = tail call noundef i64 @_ZNK4llvm15SmallVectorBaseImE8capacityEv(ptr noundef nonnull align 8 dereferenceable(24) %8) #14
  %.not.i.i.i.i = icmp ugt i64 %10, %11
  br i1 %.not.i.i.i.i, label %12, label %_ZN5clang7ODRHash10AddBooleanEb.exit

12:                                               ; preds = %2
  %13 = getelementptr inbounds nuw i8, ptr %6, i64 48
  tail call void @_ZN4llvm15SmallVectorBaseImE8grow_podEPvmm(ptr noundef nonnull align 8 dereferenceable(24) %8, ptr noundef nonnull %13, i64 noundef %10, i64 noundef 1) #14
  br label %_ZN5clang7ODRHash10AddBooleanEb.exit

_ZN5clang7ODRHash10AddBooleanEb.exit:             ; preds = %2, %12
  %14 = zext i1 %7 to i8
  %15 = load ptr, ptr %8, align 8
  %16 = tail call noundef i64 @_ZNK4llvm15SmallVectorBaseImE4sizeEv(ptr noundef nonnull align 8 dereferenceable(24) %8) #14
  %17 = getelementptr inbounds i8, ptr %15, i64 %16
  store i8 %14, ptr %17, align 1
  %18 = tail call noundef i64 @_ZNK4llvm15SmallVectorBaseImE4sizeEv(ptr noundef nonnull align 8 dereferenceable(24) %8) #14
  %19 = add i64 %18, 1
  tail call void @_ZN4llvm15SmallVectorBaseImE8set_sizeEm(ptr noundef nonnull align 8 dereferenceable(24) %8, i64 noundef %19) #14
  br i1 %7, label %20, label %_ZN12_GLOBAL__N_114ODRTypeVisitor7AddDeclEPKN5clang4DeclE.exit

20:                                               ; preds = %_ZN5clang7ODRHash10AddBooleanEb.exit
  %21 = load ptr, ptr %5, align 8
  tail call void @_ZN5clang7ODRHash7AddDeclEPKNS_4DeclE(ptr noundef nonnull align 8 dereferenceable(320) %21, ptr noundef nonnull %4)
  br label %_ZN12_GLOBAL__N_114ODRTypeVisitor7AddDeclEPKN5clang4DeclE.exit

_ZN12_GLOBAL__N_114ODRTypeVisitor7AddDeclEPKN5clang4DeclE.exit: ; preds = %_ZN5clang7ODRHash10AddBooleanEb.exit, %20
  ret void
}